; Function Attrs: mustprogress nofree norecurse nosync nounwind willreturn memory(write, argmem: readwrite, inaccessiblemem: none) uwtable
define hidden void @_ZN3sat8parallel11vector_pool15add_vector_elemEj(ptr nocapture noundef nonnull align 8 dereferenceable(32) %this, i32 noundef %e) local_unnamed_addr #5 align 2 {
entry:
  %m_tail = getelementptr inbounds i8, ptr %this, i64 12
  %0 = load i32, ptr %m_tail, align 4
  %inc = add i32 %0, 1
  store i32 %inc, ptr %m_tail, align 4
  %1 = load ptr, ptr %this, align 8
  %idxprom.i = zext i32 %0 to i64
  %arrayidx.i = getelementptr inbounds i32, ptr %1, i64 %idxprom.i
  store i32 %e, ptr %arrayidx.i, align 4
  ret void
}